; Function Attrs: nofree norecurse nosync nounwind memory(read, argmem: readwrite, inaccessiblemem: none) uwtable
define internal fastcc void @decode_colskip(ptr noundef writeonly captures(none) %0, i32 noundef %1, i32 noundef %2, i32 noundef %3, ptr noundef captures(none) %4) unnamed_addr #9 {
  %6 = icmp sgt i32 %1, 0
  br i1 %6, label %.lr.ph28, label %._crit_edge

.lr.ph28:                                         ; preds = %5
  %7 = getelementptr inbounds nuw i8, ptr %4, i64 16
  %8 = getelementptr inbounds nuw i8, ptr %4, i64 24
  %9 = icmp sgt i32 %2, 0
  br i1 %9, label %.lr.ph28.split.us.split.us.preheader, label %.lr.ph28.split.split

.lr.ph28.split.us.split.us.preheader:             ; preds = %.lr.ph28
  %10 = sext i32 %3 to i64
  %wide.trip.count = zext nneg i32 %2 to i64
  %wide.trip.count47 = zext nneg i32 %2 to i64
  br label %.lr.ph28.split.us.split.us

.lr.ph28.split.us.split.us:                       ; preds = %.lr.ph28.split.us.split.us.preheader, %..loopexit21_crit_edge.us.us
  %.01727.us.us = phi i32 [ %41, %..loopexit21_crit_edge.us.us ], [ 0, %.lr.ph28.split.us.split.us.preheader ]
  %.01825.us.us = phi ptr [ %40, %..loopexit21_crit_edge.us.us ], [ %0, %.lr.ph28.split.us.split.us.preheader ]
  %11 = load i32, ptr %7, align 8, !tbaa !12
  %12 = load ptr, ptr %4, align 8, !tbaa !15
  %13 = lshr i32 %11, 3
  %14 = zext nneg i32 %13 to i64
  %15 = getelementptr inbounds nuw i8, ptr %12, i64 %14
  %16 = load i8, ptr %15, align 1, !tbaa !11
  %17 = load i32, ptr %8, align 8, !tbaa !14
  %18 = icmp slt i32 %11, %17
  %19 = zext i1 %18 to i32
  %spec.select.i.us.us = add i32 %11, %19
  %20 = zext i8 %16 to i32
  %21 = and i32 %11, 7
  store i32 %spec.select.i.us.us, ptr %7, align 8, !tbaa !12
  %22 = lshr exact i32 128, %21
  %23 = and i32 %22, %20
  %.not.us.us = icmp eq i32 %23, 0
  br i1 %.not.us.us, label %.preheader.us.us, label %.preheader20.us.us

.preheader20.us.us:                               ; preds = %.lr.ph28.split.us.split.us, %.preheader20.us.us
  %indvars.iv = phi i64 [ %indvars.iv.next, %.preheader20.us.us ], [ 0, %.lr.ph28.split.us.split.us ]
  %24 = load i32, ptr %7, align 8, !tbaa !12
  %25 = load ptr, ptr %4, align 8, !tbaa !15
  %26 = lshr i32 %24, 3
  %27 = zext nneg i32 %26 to i64
  %28 = getelementptr inbounds nuw i8, ptr %25, i64 %27
  %29 = load i8, ptr %28, align 1, !tbaa !11
  %30 = load i32, ptr %8, align 8, !tbaa !14
  %31 = icmp slt i32 %24, %30
  %32 = zext i1 %31 to i32
  %spec.select.i19.us.us = add i32 %24, %32
  %33 = zext i8 %29 to i32
  %34 = and i32 %24, 7
  %35 = shl nuw nsw i32 %33, %34
  store i32 %spec.select.i19.us.us, ptr %7, align 8, !tbaa !12
  %36 = trunc i32 %35 to i8
  %37 = lshr i8 %36, 7
  %38 = mul nsw i64 %indvars.iv, %10
  %39 = getelementptr inbounds i8, ptr %.01825.us.us, i64 %38
  store i8 %37, ptr %39, align 1, !tbaa !11
  %indvars.iv.next = add nuw nsw i64 %indvars.iv, 1
  %exitcond43.not = icmp eq i64 %indvars.iv.next, %wide.trip.count
  br i1 %exitcond43.not, label %..loopexit21_crit_edge.us.us, label %.preheader20.us.us, !llvm.loop !184

..loopexit21_crit_edge.us.us:                     ; preds = %.preheader20.us.us, %.preheader.us.us
  %40 = getelementptr inbounds nuw i8, ptr %.01825.us.us, i64 1
  %41 = add nuw nsw i32 %.01727.us.us, 1
  %exitcond49.not = icmp eq i32 %41, %1
  br i1 %exitcond49.not, label %._crit_edge, label %.lr.ph28.split.us.split.us, !llvm.loop !185

.preheader.us.us:                                 ; preds = %.lr.ph28.split.us.split.us, %.preheader.us.us
  %indvars.iv44 = phi i64 [ %indvars.iv.next45, %.preheader.us.us ], [ 0, %.lr.ph28.split.us.split.us ]
  %42 = mul nsw i64 %indvars.iv44, %10
  %43 = getelementptr inbounds i8, ptr %.01825.us.us, i64 %42
  store i8 0, ptr %43, align 1, !tbaa !11
  %indvars.iv.next45 = add nuw nsw i64 %indvars.iv44, 1
  %exitcond48.not = icmp eq i64 %indvars.iv.next45, %wide.trip.count47
  br i1 %exitcond48.not, label %..loopexit21_crit_edge.us.us, label %.preheader.us.us, !llvm.loop !186

.lr.ph28.split.split:                             ; preds = %.lr.ph28
  %.promoted = load i32, ptr %7, align 8, !tbaa !12
  %.pre = load i32, ptr %8, align 8, !tbaa !14
  br label %44

44:                                               ; preds = %.lr.ph28.split.split, %44
  %spec.select.i39 = phi i32 [ %.promoted, %.lr.ph28.split.split ], [ %spec.select.i, %44 ]
  %.01727 = phi i32 [ 0, %.lr.ph28.split.split ], [ %47, %44 ]
  %45 = icmp slt i32 %spec.select.i39, %.pre
  %46 = zext i1 %45 to i32
  %spec.select.i = add i32 %spec.select.i39, %46
  %47 = add nuw nsw i32 %.01727, 1
  %exitcond.not = icmp eq i32 %47, %1
  br i1 %exitcond.not, label %._crit_edge.loopexit51, label %44, !llvm.loop !185

._crit_edge.loopexit51:                           ; preds = %44
  store i32 %spec.select.i, ptr %7, align 8, !tbaa !12
  br label %._crit_edge

._crit_edge:                                      ; preds = %..loopexit21_crit_edge.us.us, %._crit_edge.loopexit51, %5
  ret void
}